; Function Attrs: mustprogress nofree norecurse nosync nounwind willreturn memory(read, argmem: readwrite, inaccessiblemem: none) uwtable
define dso_local noundef zeroext i1 @_ZN4base9ListValue7GetListEmPPS0_(ptr nocapture noundef nonnull readonly align 8 dereferenceable(40) %this, i64 noundef %index, ptr noundef writeonly %out_value) local_unnamed_addr #14 align 2 {
entry:
  %list_.i.i = getelementptr inbounds i8, ptr %this, i64 16
  %_M_finish.i.i.i = getelementptr inbounds i8, ptr %this, i64 24
  %0 = load ptr, ptr %_M_finish.i.i.i, align 8
  %1 = load ptr, ptr %list_.i.i, align 8
  %sub.ptr.lhs.cast.i.i.i = ptrtoint ptr %0 to i64
  %sub.ptr.rhs.cast.i.i.i = ptrtoint ptr %1 to i64
  %sub.ptr.sub.i.i.i = sub i64 %sub.ptr.lhs.cast.i.i.i, %sub.ptr.rhs.cast.i.i.i
  %sub.ptr.div.i.i.i = ashr exact i64 %sub.ptr.sub.i.i.i, 3
  %cmp.not.i.i = icmp ugt i64 %sub.ptr.div.i.i.i, %index
  br i1 %cmp.not.i.i, label %lor.lhs.false.i, label %_ZNK4base9ListValue7GetListEmPPKS0_.exit

lor.lhs.false.i:                                  ; preds = %entry
  %add.ptr.i.i.i = getelementptr inbounds %"class.std::unique_ptr", ptr %1, i64 %index
  %2 = load ptr, ptr %add.ptr.i.i.i, align 8
  %type_.i.i = getelementptr inbounds i8, ptr %2, i64 8
  %3 = load i32, ptr %type_.i.i, align 8
  %cmp.i.i = icmp eq i32 %3, 7
  br i1 %cmp.i.i, label %if.end.i, label %_ZNK4base9ListValue7GetListEmPPKS0_.exit

if.end.i:                                         ; preds = %lor.lhs.false.i
  %tobool3.not.i = icmp eq ptr %out_value, null
  br i1 %tobool3.not.i, label %_ZNK4base9ListValue7GetListEmPPKS0_.exit, label %if.then4.i

if.then4.i:                                       ; preds = %if.end.i
  store ptr %2, ptr %out_value, align 8
  br label %_ZNK4base9ListValue7GetListEmPPKS0_.exit

_ZNK4base9ListValue7GetListEmPPKS0_.exit:         ; preds = %entry, %lor.lhs.false.i, %if.end.i, %if.then4.i
  %retval.0.i = phi i1 [ false, %lor.lhs.false.i ], [ true, %if.then4.i ], [ true, %if.end.i ], [ false, %entry ]
  ret i1 %retval.0.i
}